; Function Attrs: mustprogress uwtable
define hidden void @_ZNK3nla18const_iterator_mon21init_vars_by_the_maskER7svectorIjjES3_(ptr nocapture noundef nonnull readonly align 8 dereferenceable(24) %this, ptr noundef nonnull align 8 dereferenceable(8) %k_vars, ptr noundef nonnull align 8 dereferenceable(8) %j_vars) local_unnamed_addr #3 align 2 {
entry:
  %m_ff = getelementptr inbounds i8, ptr %this, i64 8
  %0 = load ptr, ptr %m_ff, align 8
  %m_vars = getelementptr inbounds i8, ptr %0, i64 8
  %1 = load ptr, ptr %m_vars, align 8
  %2 = load ptr, ptr %1, align 8
  %cmp.i.i = icmp eq ptr %2, null
  br i1 %cmp.i.i, label %_ZNK6vectorIjLb0EjE4backEv.exit, label %if.end.i.i

if.end.i.i:                                       ; preds = %entry
  %arrayidx.i.i = getelementptr inbounds i8, ptr %2, i64 -4
  %3 = load i32, ptr %arrayidx.i.i, align 4
  %4 = add i32 %3, -1
  %5 = zext i32 %4 to i64
  br label %_ZNK6vectorIjLb0EjE4backEv.exit

_ZNK6vectorIjLb0EjE4backEv.exit:                  ; preds = %entry, %if.end.i.i
  %retval.0.i.i = phi i64 [ %5, %if.end.i.i ], [ 4294967295, %entry ]
  %arrayidx.i1.i = getelementptr inbounds i32, ptr %2, i64 %retval.0.i.i
  %6 = load ptr, ptr %k_vars, align 8
  %cmp.i = icmp eq ptr %6, null
  br i1 %cmp.i, label %if.then.i, label %lor.lhs.false.i

lor.lhs.false.i:                                  ; preds = %_ZNK6vectorIjLb0EjE4backEv.exit
  %arrayidx.i = getelementptr inbounds i8, ptr %6, i64 -4
  %7 = load i32, ptr %arrayidx.i, align 4
  %arrayidx4.i = getelementptr inbounds i8, ptr %6, i64 -8
  %8 = load i32, ptr %arrayidx4.i, align 4
  %cmp5.i = icmp eq i32 %7, %8
  br i1 %cmp5.i, label %if.then.i, label %_ZN6vectorIjLb0EjE9push_backERKj.exit

if.then.i:                                        ; preds = %lor.lhs.false.i, %_ZNK6vectorIjLb0EjE4backEv.exit
  tail call void @_ZN6vectorIjLb0EjE13expand_vectorEv(ptr noundef nonnull align 8 dereferenceable(8) %k_vars)
  %.pre.i = load ptr, ptr %k_vars, align 8
  %arrayidx8.phi.trans.insert.i = getelementptr inbounds i8, ptr %.pre.i, i64 -4
  %.pre1.i = load i32, ptr %arrayidx8.phi.trans.insert.i, align 4
  br label %_ZN6vectorIjLb0EjE9push_backERKj.exit

_ZN6vectorIjLb0EjE9push_backERKj.exit:            ; preds = %lor.lhs.false.i, %if.then.i
  %9 = phi i32 [ %.pre1.i, %if.then.i ], [ %7, %lor.lhs.false.i ]
  %10 = phi ptr [ %.pre.i, %if.then.i ], [ %6, %lor.lhs.false.i ]
  %idx.ext.i = zext i32 %9 to i64
  %add.ptr.i = getelementptr inbounds i32, ptr %10, i64 %idx.ext.i
  %11 = load i32, ptr %arrayidx.i1.i, align 4
  store i32 %11, ptr %add.ptr.i, align 4
  %12 = load ptr, ptr %k_vars, align 8
  %arrayidx10.i = getelementptr inbounds i8, ptr %12, i64 -4
  %13 = load i32, ptr %arrayidx10.i, align 4
  %inc.i = add i32 %13, 1
  store i32 %inc.i, ptr %arrayidx10.i, align 4
  br label %for.cond

for.cond:                                         ; preds = %for.inc, %_ZN6vectorIjLb0EjE9push_backERKj.exit
  %indvars.iv = phi i64 [ %indvars.iv.next, %for.inc ], [ 0, %_ZN6vectorIjLb0EjE9push_backERKj.exit ]
  %14 = load ptr, ptr %this, align 8
  %cmp.i6 = icmp eq ptr %14, null
  br i1 %cmp.i6, label %_ZNK6vectorIbLb0EjE4sizeEv.exit, label %if.end.i

if.end.i:                                         ; preds = %for.cond
  %arrayidx.i7 = getelementptr inbounds i8, ptr %14, i64 -4
  %15 = load i32, ptr %arrayidx.i7, align 4
  br label %_ZNK6vectorIbLb0EjE4sizeEv.exit

_ZNK6vectorIbLb0EjE4sizeEv.exit:                  ; preds = %for.cond, %if.end.i
  %retval.0.i = phi i32 [ %15, %if.end.i ], [ 0, %for.cond ]
  %16 = zext i32 %retval.0.i to i64
  %cmp = icmp ult i64 %indvars.iv, %16
  br i1 %cmp, label %for.body, label %for.end

for.body:                                         ; preds = %_ZNK6vectorIbLb0EjE4sizeEv.exit
  %arrayidx.i8 = getelementptr inbounds i8, ptr %14, i64 %indvars.iv
  %17 = load i8, ptr %arrayidx.i8, align 1
  %18 = and i8 %17, 1
  %tobool.not = icmp eq i8 %18, 0
  %19 = load ptr, ptr %m_ff, align 8
  %m_vars11 = getelementptr inbounds i8, ptr %19, i64 8
  %20 = load ptr, ptr %m_vars11, align 8
  %21 = load ptr, ptr %20, align 8
  %arrayidx.i27 = getelementptr inbounds i32, ptr %21, i64 %indvars.iv
  br i1 %tobool.not, label %if.else, label %if.then

if.then:                                          ; preds = %for.body
  %22 = load ptr, ptr %k_vars, align 8
  %cmp.i11 = icmp eq ptr %22, null
  br i1 %cmp.i11, label %for.inc.sink.split, label %lor.lhs.false.i12

lor.lhs.false.i12:                                ; preds = %if.then
  %arrayidx.i13 = getelementptr inbounds i8, ptr %22, i64 -4
  %23 = load i32, ptr %arrayidx.i13, align 4
  %arrayidx4.i14 = getelementptr inbounds i8, ptr %22, i64 -8
  %24 = load i32, ptr %arrayidx4.i14, align 4
  %cmp5.i15 = icmp eq i32 %23, %24
  br i1 %cmp5.i15, label %for.inc.sink.split, label %for.inc

if.else:                                          ; preds = %for.body
  %25 = load ptr, ptr %j_vars, align 8
  %cmp.i28 = icmp eq ptr %25, null
  br i1 %cmp.i28, label %for.inc.sink.split, label %lor.lhs.false.i29

lor.lhs.false.i29:                                ; preds = %if.else
  %arrayidx.i30 = getelementptr inbounds i8, ptr %25, i64 -4
  %26 = load i32, ptr %arrayidx.i30, align 4
  %arrayidx4.i31 = getelementptr inbounds i8, ptr %25, i64 -8
  %27 = load i32, ptr %arrayidx4.i31, align 4
  %cmp5.i32 = icmp eq i32 %26, %27
  br i1 %cmp5.i32, label %for.inc.sink.split, label %for.inc

for.inc.sink.split:                               ; preds = %if.else, %lor.lhs.false.i29, %if.then, %lor.lhs.false.i12
  %k_vars.sink47 = phi ptr [ %k_vars, %lor.lhs.false.i12 ], [ %k_vars, %if.then ], [ %j_vars, %lor.lhs.false.i29 ], [ %j_vars, %if.else ]
  tail call void @_ZN6vectorIjLb0EjE13expand_vectorEv(ptr noundef nonnull align 8 dereferenceable(8) %k_vars.sink47)
  %.pre.i22 = load ptr, ptr %k_vars.sink47, align 8
  %arrayidx8.phi.trans.insert.i40 = getelementptr inbounds i8, ptr %.pre.i22, i64 -4
  %.pre1.i41 = load i32, ptr %arrayidx8.phi.trans.insert.i40, align 4
  br label %for.inc

for.inc:                                          ; preds = %for.inc.sink.split, %lor.lhs.false.i29, %lor.lhs.false.i12
  %.sink45 = phi i32 [ %23, %lor.lhs.false.i12 ], [ %26, %lor.lhs.false.i29 ], [ %.pre1.i41, %for.inc.sink.split ]
  %.sink = phi ptr [ %22, %lor.lhs.false.i12 ], [ %25, %lor.lhs.false.i29 ], [ %.pre.i22, %for.inc.sink.split ]
  %k_vars.sink = phi ptr [ %k_vars, %lor.lhs.false.i12 ], [ %j_vars, %lor.lhs.false.i29 ], [ %k_vars.sink47, %for.inc.sink.split ]
  %idx.ext.i17 = zext i32 %.sink45 to i64
  %add.ptr.i18 = getelementptr inbounds i32, ptr %.sink, i64 %idx.ext.i17
  %28 = load i32, ptr %arrayidx.i27, align 4
  store i32 %28, ptr %add.ptr.i18, align 4
  %29 = load ptr, ptr %k_vars.sink, align 8
  %arrayidx10.i19 = getelementptr inbounds i8, ptr %29, i64 -4
  %30 = load i32, ptr %arrayidx10.i19, align 4
  %inc.i20 = add i32 %30, 1
  store i32 %inc.i20, ptr %arrayidx10.i19, align 4
  %indvars.iv.next = add nuw nsw i64 %indvars.iv, 1
  br label %for.cond, !llvm.loop !4

for.end:                                          ; preds = %_ZNK6vectorIbLb0EjE4sizeEv.exit
  ret void
}